Certificate:
    Data:
        Version: 1 (0x0)
        Serial Number: 4099 (0x1003)
        Signature Algorithm: sha256WithRSAEncryption
        Issuer: CN=Root-CA
        Validity
            Not Before: Sep 11 09:15:59 2020 GMT
            Not After : Sep  9 09:15:59 2030 GMT
        Subject: C=BG, ST=SF, O=iFAO, CN=config-server.config
        Subject Public Key Info:
            Public Key Algorithm: rsaEncryption
                RSA Public-Key: (2048 bit)
                Modulus:
                    00:bd:dd:8a:80:dc:b4:33:15:4a:a7:80:08:f7:4a:
                    a0:e2:d0:1d:45:0f:fe:11:b8:d4:ce:43:a3:33:7a:
                    85:0b:43:fa:38:2a:75:34:c5:c8:f4:a2:b9:db:c4:
                    2a:6b:df:3e:16:ac:bb:2b:a2:f4:71:01:34:a4:e2:
                    26:03:9b:10:8e:90:0f:f5:d2:01:3a:c6:be:49:a3:
                    6e:94:c7:bb:41:23:ae:ac:42:39:ce:da:74:cc:75:
                    a4:ab:48:a4:6c:13:3e:90:f4:7c:b2:2e:d9:94:5f:
                    17:10:20:3a:04:51:bb:8b:dc:17:df:61:7c:17:cc:
                    35:9a:77:38:47:2a:7d:9c:6b:ea:b3:49:e4:c8:2d:
                    b0:c4:13:fe:91:89:06:66:15:e6:9b:3a:a2:46:62:
                    46:75:e4:c3:e9:8c:1a:f8:a9:d4:14:65:44:22:1b:
                    23:d3:e4:ed:61:b3:ff:78:4d:3c:4e:7c:38:30:4e:
                    18:1c:c5:03:12:c7:14:9b:92:75:0b:32:bd:9e:56:
                    80:20:9e:00:50:9c:60:66:ee:e0:7e:40:7f:7b:3d:
                    30:e9:89:99:9a:46:3e:06:92:a1:93:c0:a1:b4:b7:
                    88:5b:a2:b6:50:31:67:8b:eb:27:f3:63:fb:45:b2:
                    4f:63:e2:b0:4c:3a:dd:15:e9:53:3f:1b:d1:7d:c9:
                    60:f9
                Exponent: 65537 (0x10001)
    Signature Algorithm: sha256WithRSAEncryption
         71:61:21:b7:ba:41:bc:00:e6:95:2f:f5:34:b7:03:7e:6c:c5:
         2a:b9:cb:6e:d9:73:03:06:ce:0d:8c:ad:05:68:e9:60:2a:24:
         9c:59:9a:4d:90:01:6a:dc:49:73:e8:2d:a6:27:47:97:1e:52:
         6b:72:e2:a1:a1:4b:60:76:6c:f2:59:4a:33:be:54:93:08:5f:
         aa:8a:64:da:25:8f:d1:74:e2:6c:fa:78:93:26:bc:b3:87:56:
         c3:3b:ed:67:ab:db:c7:03:ec:03:d0:0d:e7:be:18:5d:ea:9c:
         d3:8d:c2:ce:57:1e:42:36:12:92:db:16:f4:0a:90:78:8f:07:
         21:44:26:4f:20:60:f7:80:02:b2:a3:4c:aa:d8:0c:80:11:d1:
         39:18:f5:61:35:20:5c:05:d6:a6:ff:06:68:46:4c:04:f8:55:
         b0:76:f5:48:87:3c:15:af:be:4a:be:04:ab:fd:bf:fd:55:84:
         86:e2:18:d6:cb:fc:61:d0:cd:99:19:60:13:6a:87:ad:64:d8:
         94:be:9f:db:b4:33:8b:bb:59:5e:cb:19:20:f0:76:a4:43:90:
         d9:74:12:db:ef:d4:e7:97:82:a4:43:2d:31:86:65:92:cf:7d:
         51:d2:62:49:d1:80:1c:02:34:cf:e0:ef:c9:d2:f5:78:82:cb:
         55:fd:65:2d
-----BEGIN CERTIFICATE-----
MIICzzCCAbcCAhADMA0GCSqGSIb3DQEBCwUAMBIxEDAOBgNVBAMMB1Jvb3QtQ0Ew
HhcNMjAwOTExMDkxNTU5WhcNMzAwOTA5MDkxNTU5WjBIMQswCQYDVQQGEwJCRzEL
MAkGA1UECAwCU0YxDTALBgNVBAoMBGlGQU8xHTAbBgNVBAMMFGNvbmZpZy1zZXJ2
ZXIuY29uZmlnMIIBIjANBgkqhkiG9w0BAQEFAAOCAQ8AMIIBCgKCAQEAvd2KgNy0
MxVKp4AI90qg4tAdRQ/+EbjUzkOjM3qFC0P6OCp1NMXI9KK528Qqa98+Fqy7K6L0
cQE0pOImA5sQjpAP9dIBOsa+SaNulMe7QSOurEI5ztp0zHWkq0ikbBM+kPR8si7Z
lF8XECA6BFG7i9wX32F8F8w1mnc4Ryp9nGvqs0nkyC2wxBP+kYkGZhXmmzqiRmJG
deTD6Ywa+KnUFGVEIhsj0+TtYbP/eE08Tnw4ME4YHMUDEscUm5J1CzK9nlaAIJ4A
UJxgZu7gfkB/ez0w6YmZmkY+BpKhk8ChtLeIW6K2UDFni+sn82P7RbJPY+KwTDrd
FelTPxvRfclg+QIDAQABMA0GCSqGSIb3DQEBCwUAA4IBAQBxYSG3ukG8AOaVL/U0
twN+bMUquctu2XMDBs4NjK0FaOlgKiScWZpNkAFq3Elz6C2mJ0eXHlJrcuKhoUtg
dmzyWUozvlSTCF+qimTaJY/RdOJs+niTJryzh1bDO+1nq9vHA+wD0A3nvhhd6pzT
jcLOVx5CNhKS2xb0CpB4jwchRCZPIGD3gAKyo0yq2AyAEdE5GPVhNSBcBdam/wZo
RkwE+FWwdvVIhzwVr75KvgSr/b/9VYSG4hjWy/xh0M2ZGWATaoetZNiUvp/btDOL
u1leyxkg8HakQ5DZdBLb79Tnl4KkQy0xhmWSz31R0mJJ0YAcAjTP4O/J0vV4gstV
/WUt
-----END CERTIFICATE-----
