Certificate:
    Data:
        Version: 1 (0x0)
        Serial Number: 4100 (0x1004)
        Signature Algorithm: sha256WithRSAEncryption
        Issuer: CN=Root-CA
        Validity
            Not Before: Sep 11 09:16:00 2020 GMT
            Not After : Sep  9 09:16:00 2030 GMT
        Subject: C=BG, ST=SF, O=iFAO, CN=ccbd-master.default
        Subject Public Key Info:
            Public Key Algorithm: rsaEncryption
                RSA Public-Key: (2048 bit)
                Modulus:
                    00:ad:47:61:48:d0:dc:7d:2e:4f:76:2d:ec:fd:e3:
                    ed:20:bf:55:7c:b2:82:64:75:bb:5a:53:eb:e6:cd:
                    ef:ed:94:e6:4a:eb:27:da:f2:8c:b9:7a:5c:23:e5:
                    2c:b5:93:17:2a:fb:3b:bc:15:ae:ce:7d:95:45:2e:
                    30:8e:1d:ad:da:bf:ba:be:99:f9:b6:bf:5d:b0:d5:
                    be:d0:8e:f4:7b:c4:01:a7:67:78:9f:6f:84:01:25:
                    81:5e:6f:95:38:ca:de:c4:be:8f:61:48:4c:3e:20:
                    ee:24:8d:1c:b7:dc:54:63:cb:12:24:98:18:bd:57:
                    dc:7d:64:96:6d:64:91:aa:52:29:2a:1c:39:a8:b8:
                    a3:39:c2:99:e3:1b:08:e2:f0:42:04:8f:cd:ea:bc:
                    15:ed:1c:93:0f:39:5b:06:a7:b7:eb:5d:8e:47:de:
                    b5:05:5a:db:1b:5b:cc:af:33:86:cd:50:0a:b8:8d:
                    21:e7:f0:1b:2b:c6:e7:85:bf:f8:54:f8:34:d6:45:
                    b4:62:36:cc:cc:e4:ef:7f:9b:62:1b:97:40:f2:71:
                    71:27:14:68:d9:f9:2d:27:67:5c:17:89:46:2c:eb:
                    29:a2:01:2c:8b:6a:c3:d8:6c:bd:b8:ea:7a:6f:fe:
                    54:49:95:cb:2a:c0:63:70:8e:e5:38:f0:68:e5:d6:
                    7f:d7
                Exponent: 65537 (0x10001)
    Signature Algorithm: sha256WithRSAEncryption
         1c:96:e1:a6:80:24:07:4c:73:fe:2d:7c:c8:c7:98:c3:56:3d:
         aa:06:aa:14:91:63:54:f4:6c:a4:d7:f3:c9:cd:4e:cf:92:2e:
         be:17:69:e5:b6:ff:3b:dd:3c:3d:4e:62:2e:7a:64:82:cf:55:
         4e:15:df:7e:ad:fc:5f:d6:d8:14:0c:9a:1d:cc:89:05:80:92:
         67:1a:d0:34:f6:4a:51:87:09:81:d4:8b:b3:b3:73:9f:93:83:
         84:5e:03:6f:c6:38:f4:0d:bb:3f:dc:8d:ff:4b:2f:21:e1:3a:
         49:c4:f5:5b:d7:d0:0b:ca:1c:04:6a:35:df:81:99:47:29:19:
         35:25:c2:bd:0d:5b:7e:af:ab:3c:42:e7:10:09:46:a5:41:3d:
         e3:79:6c:57:96:03:53:6e:c5:14:cd:1c:af:8f:9c:65:13:15:
         6b:4a:ca:15:09:20:7a:15:14:5a:a6:7a:54:a8:a6:1e:a9:91:
         22:ed:82:0b:7e:c4:f9:00:1a:75:5f:d4:a6:4c:7a:d0:f5:7f:
         b6:7e:40:2e:f7:7f:da:58:79:c5:77:4e:ed:9b:3b:36:08:6d:
         8c:7c:1c:82:9c:03:bb:8c:fe:8f:da:03:de:8f:f2:59:0f:98:
         96:97:9f:a1:ef:79:b8:b2:ba:00:e0:97:02:0f:ed:a4:b2:f8:
         c1:ea:d3:53
-----BEGIN CERTIFICATE-----
MIICzjCCAbYCAhAEMA0GCSqGSIb3DQEBCwUAMBIxEDAOBgNVBAMMB1Jvb3QtQ0Ew
HhcNMjAwOTExMDkxNjAwWhcNMzAwOTA5MDkxNjAwWjBHMQswCQYDVQQGEwJCRzEL
MAkGA1UECAwCU0YxDTALBgNVBAoMBGlGQU8xHDAaBgNVBAMME2NjYmQtbWFzdGVy
LmRlZmF1bHQwggEiMA0GCSqGSIb3DQEBAQUAA4IBDwAwggEKAoIBAQCtR2FI0Nx9
Lk92Lez94+0gv1V8soJkdbtaU+vmze/tlOZK6yfa8oy5elwj5Sy1kxcq+zu8Fa7O
fZVFLjCOHa3av7q+mfm2v12w1b7QjvR7xAGnZ3ifb4QBJYFeb5U4yt7Evo9hSEw+
IO4kjRy33FRjyxIkmBi9V9x9ZJZtZJGqUikqHDmouKM5wpnjGwji8EIEj83qvBXt
HJMPOVsGp7frXY5H3rUFWtsbW8yvM4bNUAq4jSHn8BsrxueFv/hU+DTWRbRiNszM
5O9/m2Ibl0DycXEnFGjZ+S0nZ1wXiUYs6ymiASyLasPYbL246npv/lRJlcsqwGNw
juU48Gjl1n/XAgMBAAEwDQYJKoZIhvcNAQELBQADggEBAByW4aaAJAdMc/4tfMjH
mMNWPaoGqhSRY1T0bKTX88nNTs+SLr4XaeW2/zvdPD1OYi56ZILPVU4V336t/F/W
2BQMmh3MiQWAkmca0DT2SlGHCYHUi7Ozc5+Tg4ReA2/GOPQNuz/cjf9LLyHhOknE
9VvX0AvKHARqNd+BmUcpGTUlwr0NW36vqzxC5xAJRqVBPeN5bFeWA1NuxRTNHK+P
nGUTFWtKyhUJIHoVFFqmelSoph6pkSLtggt+xPkAGnVf1KZMetD1f7Z+QC73f9pY
ecV3Tu2bOzYIbYx8HIKcA7uM/o/aA96P8lkPmJaXn6HvebiyugDglwIP7aSy+MHq
01M=
-----END CERTIFICATE-----
