Certificate:
    Data:
        Version: 1 (0x0)
        Serial Number: 4098 (0x1002)
        Signature Algorithm: sha256WithRSAEncryption
        Issuer: CN=Root-CA
        Validity
            Not Before: Sep 11 09:15:59 2020 GMT
            Not After : Sep  9 09:15:59 2030 GMT
        Subject: C=BG, ST=SF, O=iFAO, CN=rabbitmq-rabbitmq-ha.rabbitmq
        Subject Public Key Info:
            Public Key Algorithm: rsaEncryption
                RSA Public-Key: (2048 bit)
                Modulus:
                    00:96:f6:e8:bd:e9:c3:d8:17:19:9f:27:7c:9e:e4:
                    86:59:ec:cc:15:b7:f5:23:6a:46:35:dc:5d:e3:51:
                    72:5f:65:d8:74:32:df:f3:59:5d:24:a4:3c:87:6a:
                    4f:16:cd:f5:74:51:da:51:11:9d:af:5c:cf:a8:1f:
                    1a:59:7b:47:bc:8e:54:87:3f:ec:80:6c:86:ec:5d:
                    92:05:1d:95:a8:6d:52:26:cd:c4:52:6a:7a:b8:1e:
                    bb:54:59:c7:a0:db:20:0b:cf:8e:7a:13:79:83:04:
                    e4:75:6a:b6:ca:b5:04:b4:42:96:d2:1c:02:e6:a6:
                    f3:6c:b2:81:31:d0:31:a9:1f:26:f7:f7:a1:50:2a:
                    2c:0f:df:ef:64:5b:f5:a7:71:36:76:af:bc:51:d4:
                    35:d7:d8:74:13:47:11:c1:81:7f:4c:88:08:91:0d:
                    78:9d:58:21:c7:0e:88:ad:90:2e:99:63:f9:b3:d1:
                    28:59:91:c8:7c:70:7f:e9:8f:d3:bf:ec:99:91:fe:
                    0c:94:58:4d:71:cd:09:84:e1:01:dd:fe:64:51:94:
                    d0:5d:e3:87:e0:37:de:53:f4:7f:e9:90:67:f8:55:
                    56:23:12:7a:d6:57:d5:b4:6e:8e:89:fc:1e:bf:cf:
                    84:59:f7:d4:6e:0c:6b:5b:ca:7b:29:db:27:12:d6:
                    96:7b
                Exponent: 65537 (0x10001)
    Signature Algorithm: sha256WithRSAEncryption
         82:5e:f8:d8:01:24:50:bc:1f:f8:b5:af:55:30:93:bd:97:ba:
         34:ed:e7:fd:4d:4a:6c:1f:2f:ee:66:6d:b8:78:3b:f7:49:23:
         48:a4:d5:3b:04:bb:87:35:9b:e4:5a:46:5a:06:d3:88:b1:1b:
         8e:5a:8f:65:db:47:f0:83:fc:dd:6f:29:0c:82:c0:b7:67:9c:
         f9:5e:0b:fa:f1:e2:6d:df:c1:97:56:59:0a:a1:f8:40:e2:52:
         c8:a9:cb:ea:f8:c6:30:23:c2:86:cb:ea:86:41:84:18:32:eb:
         b1:84:94:45:58:f9:a7:0a:6d:87:8d:26:d5:c8:b8:54:75:31:
         71:ab:65:16:3e:fa:da:31:ce:4e:b5:8b:b2:4d:dc:d2:ce:fd:
         a9:62:04:ae:34:b2:5e:79:58:d9:84:96:ad:04:b3:5d:80:d7:
         88:26:37:f7:0e:d6:b8:56:41:05:53:76:82:f1:84:56:65:ee:
         f8:1c:0b:0d:11:11:a2:a9:f1:01:2d:d6:09:0b:87:1b:3e:2a:
         d3:e3:f1:a1:c3:86:fd:b2:b5:72:73:85:2f:4e:8a:63:84:a5:
         6f:6d:4b:6b:58:bf:ad:b3:dd:4d:b0:97:e8:3b:dd:ae:41:55:
         3b:f8:63:a3:95:85:9e:ee:53:11:cf:0a:6d:f9:0f:6e:25:a5:
         18:2c:90:2a
-----BEGIN CERTIFICATE-----
MIIC2DCCAcACAhACMA0GCSqGSIb3DQEBCwUAMBIxEDAOBgNVBAMMB1Jvb3QtQ0Ew
HhcNMjAwOTExMDkxNTU5WhcNMzAwOTA5MDkxNTU5WjBRMQswCQYDVQQGEwJCRzEL
MAkGA1UECAwCU0YxDTALBgNVBAoMBGlGQU8xJjAkBgNVBAMMHXJhYmJpdG1xLXJh
YmJpdG1xLWhhLnJhYmJpdG1xMIIBIjANBgkqhkiG9w0BAQEFAAOCAQ8AMIIBCgKC
AQEAlvbovenD2BcZnyd8nuSGWezMFbf1I2pGNdxd41FyX2XYdDLf81ldJKQ8h2pP
Fs31dFHaURGdr1zPqB8aWXtHvI5Uhz/sgGyG7F2SBR2VqG1SJs3EUmp6uB67VFnH
oNsgC8+OehN5gwTkdWq2yrUEtEKW0hwC5qbzbLKBMdAxqR8m9/ehUCosD9/vZFv1
p3E2dq+8UdQ119h0E0cRwYF/TIgIkQ14nVghxw6IrZAumWP5s9EoWZHIfHB/6Y/T
v+yZkf4MlFhNcc0JhOEB3f5kUZTQXeOH4DfeU/R/6ZBn+FVWIxJ61lfVtG6Oifwe
v8+EWffUbgxrW8p7KdsnEtaWewIDAQABMA0GCSqGSIb3DQEBCwUAA4IBAQCCXvjY
ASRQvB/4ta9VMJO9l7o07ef9TUpsHy/uZm24eDv3SSNIpNU7BLuHNZvkWkZaBtOI
sRuOWo9l20fwg/zdbykMgsC3Z5z5Xgv68eJt38GXVlkKofhA4lLIqcvq+MYwI8KG
y+qGQYQYMuuxhJRFWPmnCm2HjSbVyLhUdTFxq2UWPvraMc5OtYuyTdzSzv2pYgSu
NLJeeVjZhJatBLNdgNeIJjf3Dta4VkEFU3aC8YRWZe74HAsNERGiqfEBLdYJC4cb
PirT4/Ghw4b9srVyc4UvTopjhKVvbUtrWL+ts91NsJfoO92uQVU7+GOjlYWe7lMR
zwpt+Q9uJaUYLJAq
-----END CERTIFICATE-----
