Certificate:
    Data:
        Version: 1 (0x0)
        Serial Number: 4101 (0x1005)
        Signature Algorithm: sha256WithRSAEncryption
        Issuer: CN=Root-CA
        Validity
            Not Before: Oct  6 14:23:24 2020 GMT
            Not After : Oct  4 14:23:24 2030 GMT
        Subject: C=BG, ST=SF, O=iFAO, CN=booking-data-api-master.default
        Subject Public Key Info:
            Public Key Algorithm: rsaEncryption
                RSA Public-Key: (2048 bit)
                Modulus:
                    00:9b:6c:21:9b:ed:c2:07:c9:78:9a:57:a2:14:e5:
                    10:dd:32:fb:dc:4d:a2:45:70:88:69:5c:81:7e:5d:
                    d9:7b:b8:41:e0:1a:c2:af:96:e8:e5:1c:6c:48:44:
                    c6:3f:c5:9b:7f:b4:42:35:52:f8:3a:0d:21:1f:ee:
                    04:9b:58:7e:8c:63:62:97:30:80:20:06:2d:ad:e9:
                    33:b1:4b:12:9f:04:32:64:9c:55:8d:5d:aa:0c:a2:
                    67:2e:ce:de:a2:81:a2:59:be:4c:47:af:89:b3:93:
                    1e:88:14:d9:7f:64:13:b1:d3:7f:7a:bf:ef:ec:5b:
                    4d:5c:13:46:2f:e0:2b:a7:0b:f9:5d:71:8b:78:10:
                    2c:b5:fa:0c:82:47:48:0f:0b:82:b2:8e:a5:f5:61:
                    b4:cb:b0:72:69:7e:be:53:00:5e:3a:23:30:ed:21:
                    cc:07:0a:76:e5:b9:3d:08:9c:d3:03:3c:40:3d:d9:
                    55:53:9b:af:07:1c:90:6c:a9:8c:5f:c0:db:c1:8f:
                    eb:46:87:81:ad:14:e6:a1:bd:24:fb:45:c2:77:4b:
                    81:39:a6:06:3a:36:36:18:af:91:ca:bf:25:37:8b:
                    46:b3:59:e1:99:ab:e5:a3:85:82:0c:d8:5a:d8:8d:
                    75:22:e7:10:68:3d:05:5b:96:b2:25:be:29:46:ce:
                    b5:cf
                Exponent: 65537 (0x10001)
    Signature Algorithm: sha256WithRSAEncryption
         7b:f1:cd:29:fe:cd:88:03:72:e8:42:74:20:5d:c5:b5:ae:44:
         bf:71:60:63:52:48:03:56:dd:19:60:3a:46:6a:4c:92:4b:5c:
         87:04:04:38:23:97:22:a8:6b:d8:85:31:2f:4f:04:1e:c4:ca:
         44:70:55:ba:99:33:29:1c:dc:dd:36:3f:63:a4:2e:5a:38:c6:
         4e:bc:ca:05:98:39:9b:9e:99:63:92:09:42:b8:f3:71:77:4c:
         a4:46:47:97:8c:56:d6:0b:86:3a:fb:37:d1:ef:90:ed:30:e1:
         91:60:1d:82:c1:54:2d:0a:ab:27:f5:b3:33:43:cc:9d:1a:71:
         0a:24:80:10:f9:85:5b:e1:54:49:8c:f0:53:3c:98:af:de:12:
         1f:8a:c4:67:54:6f:79:60:3c:e1:93:b2:44:86:54:b4:ea:a8:
         0d:bc:83:a6:fa:3a:66:ee:54:fd:84:eb:0b:56:b1:e9:94:cb:
         06:e1:cc:c1:ba:81:8d:d9:b8:f1:9a:ad:65:f2:f2:82:58:d1:
         b4:cf:46:c4:32:c9:2f:88:1d:2b:0b:2c:c2:a7:b1:46:0d:57:
         1f:96:23:d6:fd:03:7c:eb:8d:fa:1f:4c:9e:de:c9:42:1a:8a:
         d7:b3:af:cc:a8:be:be:e9:e7:76:9b:d6:f3:cf:7e:9a:a6:9a:
         87:67:97:22
-----BEGIN CERTIFICATE-----
MIIC2jCCAcICAhAFMA0GCSqGSIb3DQEBCwUAMBIxEDAOBgNVBAMMB1Jvb3QtQ0Ew
HhcNMjAxMDA2MTQyMzI0WhcNMzAxMDA0MTQyMzI0WjBTMQswCQYDVQQGEwJCRzEL
MAkGA1UECAwCU0YxDTALBgNVBAoMBGlGQU8xKDAmBgNVBAMMH2Jvb2tpbmctZGF0
YS1hcGktbWFzdGVyLmRlZmF1bHQwggEiMA0GCSqGSIb3DQEBAQUAA4IBDwAwggEK
AoIBAQCbbCGb7cIHyXiaV6IU5RDdMvvcTaJFcIhpXIF+Xdl7uEHgGsKvlujlHGxI
RMY/xZt/tEI1Uvg6DSEf7gSbWH6MY2KXMIAgBi2t6TOxSxKfBDJknFWNXaoMomcu
zt6igaJZvkxHr4mzkx6IFNl/ZBOx0396v+/sW01cE0Yv4CunC/ldcYt4ECy1+gyC
R0gPC4KyjqX1YbTLsHJpfr5TAF46IzDtIcwHCnbluT0InNMDPEA92VVTm68HHJBs
qYxfwNvBj+tGh4GtFOahvST7RcJ3S4E5pgY6NjYYr5HKvyU3i0azWeGZq+WjhYIM
2FrYjXUi5xBoPQVblrIlvilGzrXPAgMBAAEwDQYJKoZIhvcNAQELBQADggEBAHvx
zSn+zYgDcuhCdCBdxbWuRL9xYGNSSANW3RlgOkZqTJJLXIcEBDgjlyKoa9iFMS9P
BB7EykRwVbqZMykc3N02P2OkLlo4xk68ygWYOZuemWOSCUK483F3TKRGR5eMVtYL
hjr7N9HvkO0w4ZFgHYLBVC0Kqyf1szNDzJ0acQokgBD5hVvhVEmM8FM8mK/eEh+K
xGdUb3lgPOGTskSGVLTqqA28g6b6OmbuVP2E6wtWsemUywbhzMG6gY3ZuPGarWXy
8oJY0bTPRsQyyS+IHSsLLMKnsUYNVx+WI9b9A3zrjfofTJ7eyUIaitezr8yovr7p
53ab1vPPfpqmmodnlyI=
-----END CERTIFICATE-----
