Certificate:
    Data:
        Version: 1 (0x0)
        Serial Number: 4097 (0x1001)
        Signature Algorithm: sha256WithRSAEncryption
        Issuer: CN=Root-CA
        Validity
            Not Before: Sep 11 09:15:59 2020 GMT
            Not After : Sep  9 09:15:59 2030 GMT
        Subject: C=BG, ST=SF, O=iFAO, CN=keycloak-http.keycloak
        Subject Public Key Info:
            Public Key Algorithm: rsaEncryption
                RSA Public-Key: (2048 bit)
                Modulus:
                    00:a7:40:e4:dd:7e:d2:81:24:9f:01:4a:11:16:24:
                    7a:ab:17:52:a6:6f:c0:96:8d:b1:aa:15:79:6c:29:
                    74:4d:3e:21:0d:dc:3f:4b:00:34:14:1f:35:da:1b:
                    98:d0:37:9b:d0:68:5c:cd:c4:a4:79:49:a2:00:5f:
                    5c:4e:88:09:84:32:00:07:87:49:c8:c9:46:96:81:
                    96:42:22:8c:b3:03:1e:a5:59:05:e8:a8:ca:51:27:
                    98:89:7f:ed:e0:6f:d3:b8:03:cc:0b:bc:61:da:2d:
                    be:e5:b7:da:06:a1:2f:06:33:ad:cf:0c:ff:c3:45:
                    de:6e:4d:4a:dd:4c:43:ec:b4:a2:c3:a6:0c:f8:3c:
                    b3:e9:ef:b6:dc:75:50:78:50:08:f8:8a:46:29:45:
                    b9:48:6b:b2:8c:e8:a1:fc:d1:67:3d:f1:bc:a0:d6:
                    c8:a2:95:cb:6e:04:30:8e:5c:65:0b:df:6a:4b:01:
                    b6:44:9c:7a:df:17:59:07:4c:aa:4e:ae:5c:a6:79:
                    74:b2:ac:bd:71:d2:e6:58:bf:78:5f:e3:e6:dc:98:
                    70:d6:74:af:82:3e:c7:7d:7b:c8:4c:ea:e6:9c:97:
                    47:81:7a:2d:0c:8c:f1:46:b2:7f:e4:73:ec:da:d9:
                    e4:6a:33:3f:ab:b4:a9:c3:25:23:58:08:17:2a:5e:
                    bd:05
                Exponent: 65537 (0x10001)
    Signature Algorithm: sha256WithRSAEncryption
         94:f4:05:0f:b5:94:c3:c8:ef:c1:e7:74:6c:1e:9c:ba:a9:31:
         77:00:1f:ff:02:6e:73:5e:30:16:87:bb:8c:98:d5:49:8e:78:
         a3:3b:02:8c:77:87:1a:a7:7b:07:ef:f9:48:ca:48:5d:4e:be:
         05:09:c2:fc:e6:3c:ee:7f:fb:fd:52:8b:5e:46:0e:70:a4:3d:
         0d:0f:70:35:8b:f8:e6:40:38:57:1a:80:9f:eb:8a:d3:59:db:
         0a:f8:b5:d7:6e:3c:cf:96:f1:1f:05:27:e8:ca:5b:a4:31:2a:
         19:31:3f:49:a4:ba:31:e3:95:92:83:9b:3c:46:c7:de:e1:d2:
         fa:e6:f7:b3:06:1a:d7:5d:9d:ea:ec:06:b1:5c:bf:25:23:d4:
         6b:ff:1d:9b:b8:f5:fd:b1:0d:14:4c:d9:b3:6e:a1:f1:22:b8:
         0a:cb:a5:ad:e6:d8:be:64:84:e9:eb:a3:d6:be:f5:29:45:bb:
         56:be:04:d6:c9:20:9b:07:f9:7e:ee:9d:b5:7e:a2:01:70:a9:
         16:41:55:d7:1f:06:7e:ff:34:bf:68:61:57:fd:c6:84:ab:b7:
         8d:aa:52:6e:ab:90:1c:63:ff:0c:d3:db:34:6d:4d:ba:41:3d:
         fe:a8:19:0b:0b:42:95:5b:18:d8:64:af:34:3b:21:d9:f6:5d:
         85:28:3c:9c
-----BEGIN CERTIFICATE-----
MIIC0TCCAbkCAhABMA0GCSqGSIb3DQEBCwUAMBIxEDAOBgNVBAMMB1Jvb3QtQ0Ew
HhcNMjAwOTExMDkxNTU5WhcNMzAwOTA5MDkxNTU5WjBKMQswCQYDVQQGEwJCRzEL
MAkGA1UECAwCU0YxDTALBgNVBAoMBGlGQU8xHzAdBgNVBAMMFmtleWNsb2FrLWh0
dHAua2V5Y2xvYWswggEiMA0GCSqGSIb3DQEBAQUAA4IBDwAwggEKAoIBAQCnQOTd
ftKBJJ8BShEWJHqrF1Kmb8CWjbGqFXlsKXRNPiEN3D9LADQUHzXaG5jQN5vQaFzN
xKR5SaIAX1xOiAmEMgAHh0nIyUaWgZZCIoyzAx6lWQXoqMpRJ5iJf+3gb9O4A8wL
vGHaLb7lt9oGoS8GM63PDP/DRd5uTUrdTEPstKLDpgz4PLPp77bcdVB4UAj4ikYp
RblIa7KM6KH80Wc98byg1siilctuBDCOXGUL32pLAbZEnHrfF1kHTKpOrlymeXSy
rL1x0uZYv3hf4+bcmHDWdK+CPsd9e8hM6uacl0eBei0MjPFGsn/kc+za2eRqMz+r
tKnDJSNYCBcqXr0FAgMBAAEwDQYJKoZIhvcNAQELBQADggEBAJT0BQ+1lMPI78Hn
dGwenLqpMXcAH/8CbnNeMBaHu4yY1UmOeKM7Aox3hxqnewfv+UjKSF1OvgUJwvzm
PO5/+/1Si15GDnCkPQ0PcDWL+OZAOFcagJ/ritNZ2wr4tdduPM+W8R8FJ+jKW6Qx
KhkxP0mkujHjlZKDmzxGx97h0vrm97MGGtddnersBrFcvyUj1Gv/HZu49f2xDRRM
2bNuofEiuArLpa3m2L5khOnro9a+9SlFu1a+BNbJIJsH+X7unbV+ogFwqRZBVdcf
Bn7/NL9oYVf9xoSrt42qUm6rkBxj/wzT2zRtTbpBPf6oGQsLQpVbGNhkrzQ7Idn2
XYUoPJw=
-----END CERTIFICATE-----
